; Function Attrs: nounwind uwtable
define ptr @l_Lean_Server_FileWorker_emitRequestResponse___lambda__1(ptr noundef readonly captures(none) %0, ptr noundef %1, ptr noundef %2, ptr noundef %3, ptr noundef readnone captures(none) %4, ptr noundef %5) local_unnamed_addr #0 {
  %7 = getelementptr inbounds nuw i8, ptr %0, i64 8
  %8 = load ptr, ptr %7, align 8, !tbaa !4
  %9 = ptrtoint ptr %8 to i64
  %10 = and i64 %9, 1
  %.not = icmp eq i64 %10, 0
  br i1 %.not, label %11, label %lean_inc.exit

11:                                               ; preds = %6
  %.val.i = load i32, ptr %8, align 4, !tbaa !10
  %12 = icmp sgt i32 %.val.i, 0
  br i1 %12, label %13, label %15, !prof !13

13:                                               ; preds = %11
  %14 = add nuw i32 %.val.i, 1
  store i32 %14, ptr %8, align 4, !tbaa !10
  br label %lean_inc.exit

15:                                               ; preds = %11
  %.not.i = icmp eq i32 %.val.i, 0
  br i1 %.not.i, label %lean_inc.exit, label %16

16:                                               ; preds = %15
  tail call void @lean_inc_ref_cold(ptr noundef nonnull %8) #7
  br label %lean_inc.exit

lean_inc.exit:                                    ; preds = %16, %15, %13, %6
  tail call void @lean_inc_heartbeat() #7
  %17 = tail call noalias ptr @mi_malloc_small(i64 noundef 24) #7
  %18 = icmp eq ptr %17, null
  br i1 %18, label %19, label %lean_alloc_ctor.exit

19:                                               ; preds = %lean_inc.exit
  tail call void @lean_internal_panic_out_of_memory() #8
  unreachable

lean_alloc_ctor.exit:                             ; preds = %lean_inc.exit
  %20 = getelementptr inbounds nuw i8, ptr %17, i64 4
  store i32 1, ptr %17, align 4, !tbaa !10
  store i32 33685528, ptr %20, align 4
  %21 = getelementptr inbounds nuw i8, ptr %17, i64 8
  store ptr %1, ptr %21, align 8, !tbaa !4
  %22 = getelementptr inbounds nuw i8, ptr %17, i64 16
  store ptr %8, ptr %22, align 8, !tbaa !4
  %23 = getelementptr inbounds nuw i8, ptr %0, i64 16
  %24 = load i8, ptr %23, align 1, !tbaa !14
  %25 = tail call ptr @l_Lean_Server_FileWorker_emitRequestResponse_emitResponse(ptr noundef %2, ptr noundef %3, ptr noundef nonnull %17, i8 noundef zeroext %24, ptr noundef %5)
  ret ptr %25
}